target datalayout = "e-m:e-p270:32:32-p271:32:32-p272:64:64-i64:64-i128:128-f80:128-n8:16:32:64-S128"
target triple = "x86_64-pc-linux-gnu"

%struct.FWCfgState = type { %struct.SysBusDevice, i16, [2 x ptr], ptr, ptr, i16, i32, %struct.Notifier, i32, i8, i64, ptr, %struct.MemoryRegion, i8, i64, i64, i64 }
%struct.SysBusDevice = type { %struct.DeviceState, i32, [32 x %struct.anon], i32, [32 x i32] }
%struct.DeviceState = type { %struct.Object, ptr, ptr, i8, i8, i64, i32, i8, ptr, %struct.NamedGPIOListHead, %struct.NamedClockListHead, %struct.BusStateHead, i32, i32, i32, %struct.ResettableState, ptr, %struct.MemReentrancyGuard }
%struct.Object = type { ptr, ptr, ptr, i32, ptr }
%struct.NamedGPIOListHead = type { ptr }
%struct.NamedClockListHead = type { ptr }
%struct.BusStateHead = type { ptr }
%struct.ResettableState = type { i32, i8, i8 }
%struct.MemReentrancyGuard = type { i8 }
%struct.anon = type { i64, ptr }
%struct.Notifier = type { ptr, %struct.anon.0 }
%struct.anon.0 = type { ptr, ptr }
%struct.MemoryRegion = type { %struct.Object, i8, i8, i8, i8, i8, i8, i8, i8, i8, i8, ptr, ptr, ptr, ptr, ptr, ptr, i32, i128, i64, ptr, i64, i8, i8, i8, i8, ptr, i64, i32, %union.anon, %union.anon.1, %union.anon.2, ptr, i32, ptr, ptr, i8 }
%union.anon = type { %struct.QTailQLink }
%struct.QTailQLink = type { ptr, ptr }
%union.anon.1 = type { %struct.QTailQLink }
%union.anon.2 = type { %struct.QTailQLink }
%struct.FWCfgIoState = type { %struct.FWCfgState, %struct.MemoryRegion }

@error_fatal = external global ptr, align 8
@.str.10 = private unnamed_addr constant [10 x i8] c"fw_cfg_io\00", align 1
@.str.11 = private unnamed_addr constant [12 x i8] c"dma_enabled\00", align 1
@.str.12 = private unnamed_addr constant [7 x i8] c"fw_cfg\00", align 1
@.str.80 = private unnamed_addr constant [104 x i8] c"/home/dtcxzyw/WorkSpace/Projects/compilers/llvm-opt-benchmark/bench/qemu/qemu/include/hw/nvram/fw_cfg.h\00", align 1
@.str.81 = private unnamed_addr constant [15 x i8] c"sys-bus-device\00", align 1
@.str.82 = private unnamed_addr constant [98 x i8] c"/home/dtcxzyw/WorkSpace/Projects/compilers/llvm-opt-benchmark/bench/qemu/qemu/include/hw/sysbus.h\00", align 1
@__func__.SYS_BUS_DEVICE = private unnamed_addr constant [15 x i8] c"SYS_BUS_DEVICE\00", align 1
@__func__.FW_CFG_IO = private unnamed_addr constant [10 x i8] c"FW_CFG_IO\00", align 1
@__func__.FW_CFG = private unnamed_addr constant [7 x i8] c"FW_CFG\00", align 1

; Function Attrs: inlinehint nounwind sspstrong uwtable
define internal ptr @FW_CFG(ptr noundef %0) #2 {
  %2 = alloca ptr, align 8
  store ptr %0, ptr %2, align 8
  %3 = load ptr, ptr %2, align 8
  %4 = call ptr @object_dynamic_cast_assert(ptr noundef %3, ptr noundef @.str.12, ptr noundef @.str.80, i32 noundef 15, ptr noundef @__func__.FW_CFG)
  ret ptr %4
}

; Function Attrs: inlinehint nounwind sspstrong uwtable
define internal ptr @FW_CFG_IO(ptr noundef %0) #2 {
  %2 = alloca ptr, align 8
  store ptr %0, ptr %2, align 8
  %3 = load ptr, ptr %2, align 8
  %4 = call ptr @object_dynamic_cast_assert(ptr noundef %3, ptr noundef @.str.10, ptr noundef @.str.80, i32 noundef 16, ptr noundef @__func__.FW_CFG_IO)
  ret ptr %4
}

; Function Attrs: inlinehint nounwind sspstrong uwtable
define internal ptr @SYS_BUS_DEVICE(ptr noundef %0) #2 {
  %2 = alloca ptr, align 8
  store ptr %0, ptr %2, align 8
  %3 = load ptr, ptr %2, align 8
  %4 = call ptr @object_dynamic_cast_assert(ptr noundef %3, ptr noundef @.str.81, ptr noundef @.str.82, i32 noundef 20, ptr noundef @__func__.SYS_BUS_DEVICE)
  ret ptr %4
}

; Function Attrs: nounwind sspstrong uwtable
define dso_local ptr @fw_cfg_init_io_dma(i32 noundef %0, i32 noundef %1, ptr noundef %2) #0 {
  %4 = alloca i32, align 4
  %5 = alloca i32, align 4
  %6 = alloca ptr, align 8
  %7 = alloca ptr, align 8
  %8 = alloca ptr, align 8
  %9 = alloca ptr, align 8
  %10 = alloca ptr, align 8
  %11 = alloca ptr, align 8
  %12 = alloca i8, align 1
  store i32 %0, ptr %4, align 4
  store i32 %1, ptr %5, align 4
  store ptr %2, ptr %6, align 8
  call void @llvm.lifetime.start.p0(i64 8, ptr %7) #18
  store ptr null, ptr %7, align 8, !annotation !6
  call void @llvm.lifetime.start.p0(i64 8, ptr %8) #18
  store ptr null, ptr %8, align 8, !annotation !6
  call void @llvm.lifetime.start.p0(i64 8, ptr %9) #18
  store ptr null, ptr %9, align 8, !annotation !6
  call void @llvm.lifetime.start.p0(i64 8, ptr %10) #18
  store ptr null, ptr %10, align 8, !annotation !6
  call void @llvm.lifetime.start.p0(i64 8, ptr %11) #18
  %13 = call ptr @get_system_io()
  store ptr %13, ptr %11, align 8
  call void @llvm.lifetime.start.p0(i64 1, ptr %12) #18
  %14 = load i32, ptr %5, align 4
  %15 = icmp ne i32 %14, 0
  br i1 %15, label %16, label %19

16:                                               ; preds = %3
  %17 = load ptr, ptr %6, align 8
  %18 = icmp ne ptr %17, null
  br label %19

19:                                               ; preds = %16, %3
  %20 = phi i1 [ false, %3 ], [ %18, %16 ]
  %21 = zext i1 %20 to i8
  store i8 %21, ptr %12, align 1
  %22 = call ptr @qdev_new(ptr noundef @.str.10)
  store ptr %22, ptr %7, align 8
  %23 = load i8, ptr %12, align 1, !range !4, !noundef !5
  %24 = trunc i8 %23 to i1
  br i1 %24, label %27, label %25

25:                                               ; preds = %19
  %26 = load ptr, ptr %7, align 8
  call void @qdev_prop_set_bit(ptr noundef %26, ptr noundef @.str.11, i1 noundef zeroext false)
  br label %27

27:                                               ; preds = %25, %19
  %28 = call ptr @qdev_get_machine()
  %29 = load ptr, ptr %7, align 8
  %30 = call ptr @object_property_add_child(ptr noundef %28, ptr noundef @.str.12, ptr noundef %29)
  %31 = load ptr, ptr %7, align 8
  %32 = call ptr @SYS_BUS_DEVICE(ptr noundef %31)
  store ptr %32, ptr %8, align 8
  %33 = load ptr, ptr %8, align 8
  %34 = call zeroext i1 @sysbus_realize_and_unref(ptr noundef %33, ptr noundef @error_fatal)
  %35 = load ptr, ptr %7, align 8
  %36 = call ptr @FW_CFG_IO(ptr noundef %35)
  store ptr %36, ptr %9, align 8
  %37 = load ptr, ptr %11, align 8
  %38 = load i32, ptr %4, align 4
  %39 = zext i32 %38 to i64
  %40 = load ptr, ptr %9, align 8
  %41 = getelementptr inbounds nuw %struct.FWCfgIoState, ptr %40, i32 0, i32 1
  call void @memory_region_add_subregion(ptr noundef %37, i64 noundef %39, ptr noundef %41)
  %42 = load ptr, ptr %7, align 8
  %43 = call ptr @FW_CFG(ptr noundef %42)
  store ptr %43, ptr %10, align 8
  %44 = load ptr, ptr %10, align 8
  %45 = getelementptr inbounds nuw %struct.FWCfgState, ptr %44, i32 0, i32 9
  %46 = load i8, ptr %45, align 4, !range !4, !noundef !5
  %47 = trunc i8 %46 to i1
  br i1 %47, label %48, label %59

48:                                               ; preds = %27
  %49 = load ptr, ptr %6, align 8
  %50 = load ptr, ptr %10, align 8
  %51 = getelementptr inbounds nuw %struct.FWCfgState, ptr %50, i32 0, i32 11
  store ptr %49, ptr %51, align 16
  %52 = load ptr, ptr %10, align 8
  %53 = getelementptr inbounds nuw %struct.FWCfgState, ptr %52, i32 0, i32 10
  store i64 0, ptr %53, align 8
  %54 = load ptr, ptr %11, align 8
  %55 = load i32, ptr %5, align 4
  %56 = zext i32 %55 to i64
  %57 = load ptr, ptr %10, align 8
  %58 = getelementptr inbounds nuw %struct.FWCfgState, ptr %57, i32 0, i32 12
  call void @memory_region_add_subregion(ptr noundef %54, i64 noundef %56, ptr noundef %58)
  br label %59

59:                                               ; preds = %48, %27
  %60 = load ptr, ptr %10, align 8
  call void @llvm.lifetime.end.p0(i64 1, ptr %12) #18
  call void @llvm.lifetime.end.p0(i64 8, ptr %11) #18
  call void @llvm.lifetime.end.p0(i64 8, ptr %10) #18
  call void @llvm.lifetime.end.p0(i64 8, ptr %9) #18
  call void @llvm.lifetime.end.p0(i64 8, ptr %8) #18
  call void @llvm.lifetime.end.p0(i64 8, ptr %7) #18
  ret ptr %60
}