; Function Attrs: nounwind sspstrong uwtable
define dso_local ptr @fw_cfg_init_io_dma(i32 noundef %0, i32 noundef %1, ptr noundef %2) local_unnamed_addr #2 {
  %4 = tail call ptr @get_system_io() #18
  %5 = icmp ne i32 %1, 0
  %6 = icmp ne ptr %2, null
  %7 = and i1 %5, %6
  %8 = tail call ptr @qdev_new(ptr noundef nonnull @.str.10) #18
  br i1 %7, label %10, label %9

9:                                                ; preds = %3
  tail call void @qdev_prop_set_bit(ptr noundef %8, ptr noundef nonnull @.str.11, i1 noundef zeroext false) #18
  br label %10

10:                                               ; preds = %9, %3
  %11 = tail call ptr @qdev_get_machine() #18
  %12 = tail call ptr @object_property_add_child(ptr noundef %11, ptr noundef nonnull @.str.12, ptr noundef %8) #18
  %13 = tail call ptr @object_dynamic_cast_assert(ptr noundef %8, ptr noundef nonnull @.str.81, ptr noundef nonnull @.str.82, i32 noundef 20, ptr noundef nonnull @__func__.SYS_BUS_DEVICE) #18
  %14 = tail call zeroext i1 @sysbus_realize_and_unref(ptr noundef %13, ptr noundef nonnull @error_fatal) #18
  %15 = tail call ptr @object_dynamic_cast_assert(ptr noundef %8, ptr noundef nonnull @.str.10, ptr noundef nonnull @.str.80, i32 noundef 16, ptr noundef nonnull @__func__.FW_CFG_IO) #18
  %16 = zext i32 %0 to i64
  %17 = getelementptr inbounds nuw i8, ptr %15, i64 1216
  tail call void @memory_region_add_subregion(ptr noundef %4, i64 noundef %16, ptr noundef nonnull %17) #18
  %18 = tail call ptr @object_dynamic_cast_assert(ptr noundef %8, ptr noundef nonnull @.str.12, ptr noundef nonnull @.str.80, i32 noundef 15, ptr noundef nonnull @__func__.FW_CFG) #18
  %19 = getelementptr inbounds nuw i8, ptr %18, i64 884
  %20 = load i8, ptr %19, align 4, !range !4, !noundef !5
  %21 = trunc nuw i8 %20 to i1
  br i1 %21, label %22, label %27

22:                                               ; preds = %10
  %23 = getelementptr inbounds nuw i8, ptr %18, i64 896
  store ptr %2, ptr %23, align 16
  %24 = getelementptr inbounds nuw i8, ptr %18, i64 888
  store i64 0, ptr %24, align 8
  %25 = zext i32 %1 to i64
  %26 = getelementptr inbounds nuw i8, ptr %18, i64 912
  tail call void @memory_region_add_subregion(ptr noundef %4, i64 noundef %25, ptr noundef nonnull %26) #18
  br label %27

27:                                               ; preds = %22, %10
  ret ptr %18
}